; Function Attrs: nounwind uwtable
define internal range(i64 0, 511) i64 @H5O__cont_size(ptr noundef %0, i1 zeroext %1, ptr readnone captures(none) %2) #0 {
  %4 = load i8, ptr @H5O_init_g, align 1, !tbaa !8, !range !10, !noundef !11
  %5 = trunc nuw i8 %4 to i1
  %6 = load i8, ptr @H5_libterm_g, align 1, !range !10
  %7 = trunc nuw i8 %6 to i1
  %8 = xor i1 %7, true
  %9 = select i1 %5, i1 true, i1 %8
  br i1 %9, label %10, label %16, !prof !12

10:                                               ; preds = %3
  %11 = tail call zeroext i8 @H5F_sizeof_addr(ptr noundef %0) #4
  %12 = zext i8 %11 to i64
  %13 = tail call zeroext i8 @H5F_sizeof_size(ptr noundef %0) #4
  %14 = zext i8 %13 to i64
  %15 = add nuw nsw i64 %14, %12
  br label %16

16:                                               ; preds = %10, %3
  %.0 = phi i64 [ %15, %10 ], [ 0, %3 ]
  ret i64 %.0
}